; Function Attrs: nounwind uwtable
define void @X509_STORE_CTX_free(ptr noundef %0) local_unnamed_addr #0 {
  %2 = icmp eq ptr %0, null
  br i1 %2, label %24, label %3

3:                                                ; preds = %1
  %4 = getelementptr inbounds nuw i8, ptr %0, i64 136
  %5 = load ptr, ptr %4, align 8, !tbaa !129
  %.not.i = icmp eq ptr %5, null
  br i1 %.not.i, label %8, label %6

6:                                                ; preds = %3
  %7 = tail call i32 %5(ptr noundef nonnull %0) #10
  store ptr null, ptr %4, align 8, !tbaa !129
  br label %8

8:                                                ; preds = %6, %3
  %9 = getelementptr inbounds nuw i8, ptr %0, i64 32
  %10 = load ptr, ptr %9, align 8, !tbaa !49
  %.not16.i = icmp eq ptr %10, null
  br i1 %.not16.i, label %X509_STORE_CTX_cleanup.exit, label %11

11:                                               ; preds = %8
  %12 = getelementptr inbounds nuw i8, ptr %0, i64 216
  %13 = load ptr, ptr %12, align 8, !tbaa !121
  %14 = icmp eq ptr %13, null
  br i1 %14, label %15, label %16

15:                                               ; preds = %11
  tail call void @X509_VERIFY_PARAM_free(ptr noundef nonnull %10) #10
  br label %16

16:                                               ; preds = %15, %11
  store ptr null, ptr %9, align 8, !tbaa !49
  br label %X509_STORE_CTX_cleanup.exit

X509_STORE_CTX_cleanup.exit:                      ; preds = %8, %16
  %17 = getelementptr inbounds nuw i8, ptr %0, i64 160
  %18 = load ptr, ptr %17, align 8, !tbaa !130
  tail call void @X509_policy_tree_free(ptr noundef %18) #10
  store ptr null, ptr %17, align 8, !tbaa !130
  %19 = getelementptr inbounds nuw i8, ptr %0, i64 152
  %20 = load ptr, ptr %19, align 8, !tbaa !56
  tail call void @OSSL_STACK_OF_X509_free(ptr noundef %20) #10
  store ptr null, ptr %19, align 8, !tbaa !56
  %21 = getelementptr inbounds nuw i8, ptr %0, i64 224
  tail call void @CRYPTO_free_ex_data(i32 noundef 5, ptr noundef nonnull %0, ptr noundef nonnull %21) #10
  tail call void @llvm.memset.p0.i64(ptr noundef nonnull align 8 dereferenceable(16) %21, i8 0, i64 16, i1 false)
  %22 = getelementptr inbounds nuw i8, ptr %0, i64 272
  %23 = load ptr, ptr %22, align 8, !tbaa !128
  tail call void @CRYPTO_free(ptr noundef %23, ptr noundef nonnull @.str, i32 noundef 2482) #10
  tail call void @CRYPTO_free(ptr noundef nonnull %0, ptr noundef nonnull @.str, i32 noundef 2483) #10
  br label %24

24:                                               ; preds = %1, %X509_STORE_CTX_cleanup.exit
  ret void
}